
bin\Debug\AGV_code.elf:     file format elf32-avr

Sections:
Idx Name          Size      VMA       LMA       File off  Algn
  0 .data         000000a8  00800200  0000079e  00000852  2**0
                  CONTENTS, ALLOC, LOAD, DATA
  1 .text         0000079e  00000000  00000000  000000b4  2**1
                  CONTENTS, ALLOC, LOAD, READONLY, CODE
  2 .bss          00000002  008002a8  008002a8  000008fa  2**0
                  ALLOC
  3 .fuse         00000003  00820000  00820000  000008fa  2**0
                  CONTENTS, ALLOC, LOAD, DATA
  4 .debug_aranges 00000040  00000000  00000000  000008fd  2**0
                  CONTENTS, READONLY, DEBUGGING
  5 .debug_pubnames 0000011a  00000000  00000000  0000093d  2**0
                  CONTENTS, READONLY, DEBUGGING
  6 .debug_info   00000431  00000000  00000000  00000a57  2**0
                  CONTENTS, READONLY, DEBUGGING
  7 .debug_abbrev 00000279  00000000  00000000  00000e88  2**0
                  CONTENTS, READONLY, DEBUGGING
  8 .debug_line   00000607  00000000  00000000  00001101  2**0
                  CONTENTS, READONLY, DEBUGGING
  9 .debug_frame  000000e0  00000000  00000000  00001708  2**2
                  CONTENTS, READONLY, DEBUGGING
 10 .debug_str    000001c5  00000000  00000000  000017e8  2**0
                  CONTENTS, READONLY, DEBUGGING
 11 .debug_loc    00000493  00000000  00000000  000019ad  2**0
                  CONTENTS, READONLY, DEBUGGING

Disassembly of section .text:

00000000 <__vectors>:
   0:	0c 94 72 00 	jmp	0xe4	; 0xe4 <__ctors_end>
   4:	0c 94 93 00 	jmp	0x126	; 0x126 <__bad_interrupt>
   8:	0c 94 93 00 	jmp	0x126	; 0x126 <__bad_interrupt>
   c:	0c 94 93 00 	jmp	0x126	; 0x126 <__bad_interrupt>
  10:	0c 94 93 00 	jmp	0x126	; 0x126 <__bad_interrupt>
  14:	0c 94 93 00 	jmp	0x126	; 0x126 <__bad_interrupt>
  18:	0c 94 93 00 	jmp	0x126	; 0x126 <__bad_interrupt>
  1c:	0c 94 93 00 	jmp	0x126	; 0x126 <__bad_interrupt>
  20:	0c 94 93 00 	jmp	0x126	; 0x126 <__bad_interrupt>
  24:	0c 94 93 00 	jmp	0x126	; 0x126 <__bad_interrupt>
  28:	0c 94 93 00 	jmp	0x126	; 0x126 <__bad_interrupt>
  2c:	0c 94 93 00 	jmp	0x126	; 0x126 <__bad_interrupt>
  30:	0c 94 93 00 	jmp	0x126	; 0x126 <__bad_interrupt>
  34:	0c 94 93 00 	jmp	0x126	; 0x126 <__bad_interrupt>
  38:	0c 94 93 00 	jmp	0x126	; 0x126 <__bad_interrupt>
  3c:	0c 94 93 00 	jmp	0x126	; 0x126 <__bad_interrupt>
  40:	0c 94 93 00 	jmp	0x126	; 0x126 <__bad_interrupt>
  44:	0c 94 93 00 	jmp	0x126	; 0x126 <__bad_interrupt>
  48:	0c 94 93 00 	jmp	0x126	; 0x126 <__bad_interrupt>
  4c:	0c 94 93 00 	jmp	0x126	; 0x126 <__bad_interrupt>
  50:	0c 94 93 00 	jmp	0x126	; 0x126 <__bad_interrupt>
  54:	0c 94 93 00 	jmp	0x126	; 0x126 <__bad_interrupt>
  58:	0c 94 93 00 	jmp	0x126	; 0x126 <__bad_interrupt>
  5c:	0c 94 93 00 	jmp	0x126	; 0x126 <__bad_interrupt>
  60:	0c 94 93 00 	jmp	0x126	; 0x126 <__bad_interrupt>
  64:	0c 94 93 00 	jmp	0x126	; 0x126 <__bad_interrupt>
  68:	0c 94 93 00 	jmp	0x126	; 0x126 <__bad_interrupt>
  6c:	0c 94 93 00 	jmp	0x126	; 0x126 <__bad_interrupt>
  70:	0c 94 93 00 	jmp	0x126	; 0x126 <__bad_interrupt>
  74:	0c 94 93 00 	jmp	0x126	; 0x126 <__bad_interrupt>
  78:	0c 94 93 00 	jmp	0x126	; 0x126 <__bad_interrupt>
  7c:	0c 94 93 00 	jmp	0x126	; 0x126 <__bad_interrupt>
  80:	0c 94 93 00 	jmp	0x126	; 0x126 <__bad_interrupt>
  84:	0c 94 93 00 	jmp	0x126	; 0x126 <__bad_interrupt>
  88:	0c 94 93 00 	jmp	0x126	; 0x126 <__bad_interrupt>
  8c:	0c 94 93 00 	jmp	0x126	; 0x126 <__bad_interrupt>
  90:	0c 94 93 00 	jmp	0x126	; 0x126 <__bad_interrupt>
  94:	0c 94 93 00 	jmp	0x126	; 0x126 <__bad_interrupt>
  98:	0c 94 93 00 	jmp	0x126	; 0x126 <__bad_interrupt>
  9c:	0c 94 93 00 	jmp	0x126	; 0x126 <__bad_interrupt>
  a0:	0c 94 93 00 	jmp	0x126	; 0x126 <__bad_interrupt>
  a4:	0c 94 93 00 	jmp	0x126	; 0x126 <__bad_interrupt>
  a8:	0c 94 93 00 	jmp	0x126	; 0x126 <__bad_interrupt>
  ac:	0c 94 93 00 	jmp	0x126	; 0x126 <__bad_interrupt>
  b0:	0c 94 93 00 	jmp	0x126	; 0x126 <__bad_interrupt>
  b4:	0c 94 93 00 	jmp	0x126	; 0x126 <__bad_interrupt>
  b8:	0c 94 93 00 	jmp	0x126	; 0x126 <__bad_interrupt>
  bc:	0c 94 93 00 	jmp	0x126	; 0x126 <__bad_interrupt>
  c0:	0c 94 93 00 	jmp	0x126	; 0x126 <__bad_interrupt>
  c4:	0c 94 93 00 	jmp	0x126	; 0x126 <__bad_interrupt>
  c8:	0c 94 93 00 	jmp	0x126	; 0x126 <__bad_interrupt>
  cc:	0c 94 93 00 	jmp	0x126	; 0x126 <__bad_interrupt>
  d0:	0c 94 93 00 	jmp	0x126	; 0x126 <__bad_interrupt>
  d4:	0c 94 93 00 	jmp	0x126	; 0x126 <__bad_interrupt>
  d8:	0c 94 93 00 	jmp	0x126	; 0x126 <__bad_interrupt>
  dc:	0c 94 93 00 	jmp	0x126	; 0x126 <__bad_interrupt>
  e0:	0c 94 93 00 	jmp	0x126	; 0x126 <__bad_interrupt>

000000e4 <__ctors_end>:
  e4:	11 24       	eor	r1, r1
  e6:	1f be       	out	0x3f, r1	; 63
  e8:	cf ef       	ldi	r28, 0xFF	; 255
  ea:	d1 e2       	ldi	r29, 0x21	; 33
  ec:	de bf       	out	0x3e, r29	; 62
  ee:	cd bf       	out	0x3d, r28	; 61
  f0:	00 e0       	ldi	r16, 0x00	; 0
  f2:	0c bf       	out	0x3c, r16	; 60

000000f4 <__do_copy_data>:
  f4:	12 e0       	ldi	r17, 0x02	; 2
  f6:	a0 e0       	ldi	r26, 0x00	; 0
  f8:	b2 e0       	ldi	r27, 0x02	; 2
  fa:	ee e9       	ldi	r30, 0x9E	; 158
  fc:	f7 e0       	ldi	r31, 0x07	; 7
  fe:	00 e0       	ldi	r16, 0x00	; 0
 100:	0b bf       	out	0x3b, r16	; 59
 102:	02 c0       	rjmp	.+4      	; 0x108 <__do_copy_data+0x14>
 104:	07 90       	elpm	r0, Z+
 106:	0d 92       	st	X+, r0
 108:	a8 3a       	cpi	r26, 0xA8	; 168
 10a:	b1 07       	cpc	r27, r17
 10c:	d9 f7       	brne	.-10     	; 0x104 <__do_copy_data+0x10>

0000010e <__do_clear_bss>:
 10e:	12 e0       	ldi	r17, 0x02	; 2
 110:	a8 ea       	ldi	r26, 0xA8	; 168
 112:	b2 e0       	ldi	r27, 0x02	; 2
 114:	01 c0       	rjmp	.+2      	; 0x118 <.do_clear_bss_start>

00000116 <.do_clear_bss_loop>:
 116:	1d 92       	st	X+, r1

00000118 <.do_clear_bss_start>:
 118:	aa 3a       	cpi	r26, 0xAA	; 170
 11a:	b1 07       	cpc	r27, r17
 11c:	e1 f7       	brne	.-8      	; 0x116 <.do_clear_bss_loop>
 11e:	0e 94 29 02 	call	0x452	; 0x452 <main>
 122:	0c 94 cd 03 	jmp	0x79a	; 0x79a <_exit>

00000126 <__bad_interrupt>:
 126:	0c 94 00 00 	jmp	0	; 0x0 <__vectors>

0000012a <MagnometerRead>:




int MagnometerRead()
{
 12a:	df 93       	push	r29
 12c:	cf 93       	push	r28
 12e:	0f 92       	push	r0
 130:	0f 92       	push	r0
 132:	cd b7       	in	r28, 0x3d	; 61
 134:	de b7       	in	r29, 0x3e	; 62
    // Initialize variables------------------------------------
    int hal1;
    int hal2;
    int angle;
    volatile int timeout=0;
 136:	1a 82       	std	Y+2, r1	; 0x02
 138:	19 82       	std	Y+1, r1	; 0x01
    //---------------------------------------------------------


    // Switch the ADC to the correct pin and read data---------
    ADMUX  = (ADMUX | (1<<MUX1)|(1<<MUX2)) & ~(1<<MUX0);                // PIN selection (A6)
 13a:	6c e7       	ldi	r22, 0x7C	; 124
 13c:	70 e0       	ldi	r23, 0x00	; 0
 13e:	db 01       	movw	r26, r22
 140:	8c 91       	ld	r24, X
 142:	88 7f       	andi	r24, 0xF8	; 248
 144:	86 60       	ori	r24, 0x06	; 6
 146:	8c 93       	st	X, r24
    ADCSRA |= (1 << ADSC);                                              // Start the conversion
 148:	ea e7       	ldi	r30, 0x7A	; 122
 14a:	f0 e0       	ldi	r31, 0x00	; 0
 14c:	80 81       	ld	r24, Z
 14e:	80 64       	ori	r24, 0x40	; 64
 150:	80 83       	st	Z, r24
    while ( (ADCSRA & (1 << ADSC)) == 1 && timeout++<(ADC_Tout/2) );    // Wait until conversion is finished
 152:	80 81       	ld	r24, Z
    hal1 = (ADCH);                                                      // ADC data is left aligned and can be read from ADCH directly as an 8 bit value
 154:	29 e7       	ldi	r18, 0x79	; 121
 156:	30 e0       	ldi	r19, 0x00	; 0
 158:	d9 01       	movw	r26, r18
 15a:	8c 91       	ld	r24, X
 15c:	48 2f       	mov	r20, r24
 15e:	50 e0       	ldi	r21, 0x00	; 0
                                                                        // Because ADC value is an 8 bit value overflow is impossible

    ADMUX  = (ADMUX | (1<<MUX0)|(1<<MUX1)|(1<<MUX2));                   // PIN selection (A7)
 160:	db 01       	movw	r26, r22
 162:	8c 91       	ld	r24, X
 164:	87 60       	ori	r24, 0x07	; 7
 166:	8c 93       	st	X, r24
    ADCSRA |= (1 << ADSC);                                              // Start the conversion
 168:	80 81       	ld	r24, Z
 16a:	80 64       	ori	r24, 0x40	; 64
 16c:	80 83       	st	Z, r24
    while ( (ADCSRA & (1 << ADSC)) == 1 && timeout++<(ADC_Tout/2) );    // Wait until conversion is finished
 16e:	e0 81       	ld	r30, Z
    hal2 = (ADCH);                                                      // ADC data is left aligned and can be read from ADCH directly as an 8 bit value
 170:	f9 01       	movw	r30, r18
 172:	80 81       	ld	r24, Z
 174:	90 e0       	ldi	r25, 0x00	; 0
    //---------------------------------------------------------         // Because ADC value is an 8 bit value overflow is impossible


    //-compare the data-----------
    if( (hal1 > hal2) && (hal1 >= AOP00) )angle = 0;
    if( (hal1 > hal2) && (hal1 <  AOP18) )angle = 180;
 176:	84 17       	cp	r24, r20
 178:	95 07       	cpc	r25, r21
 17a:	34 f4       	brge	.+12     	; 0x188 <MagnometerRead+0x5e>
 17c:	44 36       	cpi	r20, 0x64	; 100
 17e:	51 05       	cpc	r21, r1
 180:	1c f4       	brge	.+6      	; 0x188 <MagnometerRead+0x5e>
 182:	24 eb       	ldi	r18, 0xB4	; 180
 184:	30 e0       	ldi	r19, 0x00	; 0
 186:	02 c0       	rjmp	.+4      	; 0x18c <MagnometerRead+0x62>
 188:	20 e0       	ldi	r18, 0x00	; 0
 18a:	30 e0       	ldi	r19, 0x00	; 0
    if( (hal1 < hal2) && (hal2 >= AOP90) )angle = 90;
 18c:	48 17       	cp	r20, r24
 18e:	59 07       	cpc	r21, r25
 190:	44 f4       	brge	.+16     	; 0x1a2 <MagnometerRead+0x78>
 192:	84 36       	cpi	r24, 0x64	; 100
 194:	91 05       	cpc	r25, r1
 196:	1c f4       	brge	.+6      	; 0x19e <MagnometerRead+0x74>
 198:	2e e0       	ldi	r18, 0x0E	; 14
 19a:	31 e0       	ldi	r19, 0x01	; 1
 19c:	02 c0       	rjmp	.+4      	; 0x1a2 <MagnometerRead+0x78>
 19e:	2a e5       	ldi	r18, 0x5A	; 90
 1a0:	30 e0       	ldi	r19, 0x00	; 0
    if( (hal1 < hal2) && (hal2 <  AOP27) )angle = 270;
    //----------------------------

    return angle;
}
 1a2:	82 2f       	mov	r24, r18
 1a4:	93 2f       	mov	r25, r19
 1a6:	0f 90       	pop	r0
 1a8:	0f 90       	pop	r0
 1aa:	cf 91       	pop	r28
 1ac:	df 91       	pop	r29
 1ae:	08 95       	ret

000001b0 <ColorSensorRead>:




int ColorSensorRead(int sensor)
{
 1b0:	ef 92       	push	r14
 1b2:	ff 92       	push	r15
 1b4:	0f 93       	push	r16
 1b6:	1f 93       	push	r17
 1b8:	df 93       	push	r29
 1ba:	cf 93       	push	r28
 1bc:	00 d0       	rcall	.+0      	; 0x1be <ColorSensorRead+0xe>
 1be:	0f 92       	push	r0
 1c0:	cd b7       	in	r28, 0x3d	; 61
 1c2:	de b7       	in	r29, 0x3e	; 62
 1c4:	8c 01       	movw	r16, r24
    // Initialize variables------------------------------------
    volatile int width=0;
 1c6:	1a 82       	std	Y+2, r1	; 0x02
 1c8:	19 82       	std	Y+1, r1	; 0x01
 1ca:	ee 24       	eor	r14, r14
 1cc:	ff 24       	eor	r15, r15
        volatile int timeout=0;
        //-----------------------------------------------------


        // Wait until pin turns high then measure pulse width--
        while( (TCS3200G_L) && (sensor == 0) && (timeout++<TCS_Tout) );         // Wait for pin to turn low to prevent possible error
 1ce:	e3 e2       	ldi	r30, 0x23	; 35
 1d0:	f0 e0       	ldi	r31, 0x00	; 0


    for(X=0; X<10; X++)
    {
        //Create a timeout variable for error detection--------
        volatile int timeout=0;
 1d2:	1c 82       	std	Y+4, r1	; 0x04
 1d4:	1b 82       	std	Y+3, r1	; 0x03
        //-----------------------------------------------------


        // Wait until pin turns high then measure pulse width--
        while( (TCS3200G_L) && (sensor == 0) && (timeout++<TCS_Tout) );         // Wait for pin to turn low to prevent possible error
 1d6:	80 81       	ld	r24, Z
 1d8:	83 ff       	sbrs	r24, 3
 1da:	0c c0       	rjmp	.+24     	; 0x1f4 <ColorSensorRead+0x44>
 1dc:	01 15       	cp	r16, r1
 1de:	11 05       	cpc	r17, r1
 1e0:	49 f4       	brne	.+18     	; 0x1f4 <ColorSensorRead+0x44>
 1e2:	2b 81       	ldd	r18, Y+3	; 0x03
 1e4:	3c 81       	ldd	r19, Y+4	; 0x04
 1e6:	c9 01       	movw	r24, r18
 1e8:	01 96       	adiw	r24, 0x01	; 1
 1ea:	9c 83       	std	Y+4, r25	; 0x04
 1ec:	8b 83       	std	Y+3, r24	; 0x03
 1ee:	20 5d       	subi	r18, 0xD0	; 208
 1f0:	37 40       	sbci	r19, 0x07	; 7
 1f2:	8c f3       	brlt	.-30     	; 0x1d6 <ColorSensorRead+0x26>
        while(!(TCS3200G_L) && (sensor == 0) && (timeout++<TCS_Tout) );         // wait out the Low period
 1f4:	80 81       	ld	r24, Z
 1f6:	83 fd       	sbrc	r24, 3
 1f8:	0c c0       	rjmp	.+24     	; 0x212 <ColorSensorRead+0x62>
 1fa:	01 15       	cp	r16, r1
 1fc:	11 05       	cpc	r17, r1
 1fe:	49 f4       	brne	.+18     	; 0x212 <ColorSensorRead+0x62>
 200:	2b 81       	ldd	r18, Y+3	; 0x03
 202:	3c 81       	ldd	r19, Y+4	; 0x04
 204:	c9 01       	movw	r24, r18
 206:	01 96       	adiw	r24, 0x01	; 1
 208:	9c 83       	std	Y+4, r25	; 0x04
 20a:	8b 83       	std	Y+3, r24	; 0x03
 20c:	20 5d       	subi	r18, 0xD0	; 208
 20e:	37 40       	sbci	r19, 0x07	; 7
 210:	8c f3       	brlt	.-30     	; 0x1f4 <ColorSensorRead+0x44>
        while( (TCS3200G_L) && (sensor == 0) && (timeout++<TCS_Tout) )width++;  // Measure the pulse width
 212:	80 81       	ld	r24, Z
 214:	83 ff       	sbrs	r24, 3
 216:	1d c0       	rjmp	.+58     	; 0x252 <ColorSensorRead+0xa2>
 218:	01 15       	cp	r16, r1
 21a:	11 05       	cpc	r17, r1
 21c:	d1 f4       	brne	.+52     	; 0x252 <ColorSensorRead+0xa2>
 21e:	2b 81       	ldd	r18, Y+3	; 0x03
 220:	3c 81       	ldd	r19, Y+4	; 0x04
 222:	c9 01       	movw	r24, r18
 224:	01 96       	adiw	r24, 0x01	; 1
 226:	9c 83       	std	Y+4, r25	; 0x04
 228:	8b 83       	std	Y+3, r24	; 0x03
 22a:	20 5d       	subi	r18, 0xD0	; 208
 22c:	37 40       	sbci	r19, 0x07	; 7
 22e:	8c f4       	brge	.+34     	; 0x252 <ColorSensorRead+0xa2>
 230:	89 81       	ldd	r24, Y+1	; 0x01
 232:	9a 81       	ldd	r25, Y+2	; 0x02
 234:	01 96       	adiw	r24, 0x01	; 1
 236:	9a 83       	std	Y+2, r25	; 0x02
 238:	89 83       	std	Y+1, r24	; 0x01
 23a:	80 81       	ld	r24, Z
 23c:	83 ff       	sbrs	r24, 3
 23e:	09 c0       	rjmp	.+18     	; 0x252 <ColorSensorRead+0xa2>
 240:	2b 81       	ldd	r18, Y+3	; 0x03
 242:	3c 81       	ldd	r19, Y+4	; 0x04
 244:	c9 01       	movw	r24, r18
 246:	01 96       	adiw	r24, 0x01	; 1
 248:	9c 83       	std	Y+4, r25	; 0x04
 24a:	8b 83       	std	Y+3, r24	; 0x03
 24c:	20 5d       	subi	r18, 0xD0	; 208
 24e:	37 40       	sbci	r19, 0x07	; 7
 250:	7c f3       	brlt	.-34     	; 0x230 <ColorSensorRead+0x80>

        while( (TCS3200G_R) && (sensor == 1) && (timeout++<TCS_Tout) );         // Wait for pin to turn low to prevent possible error
 252:	80 81       	ld	r24, Z
 254:	84 ff       	sbrs	r24, 4
 256:	0c c0       	rjmp	.+24     	; 0x270 <ColorSensorRead+0xc0>
 258:	01 30       	cpi	r16, 0x01	; 1
 25a:	11 05       	cpc	r17, r1
 25c:	49 f4       	brne	.+18     	; 0x270 <ColorSensorRead+0xc0>
 25e:	2b 81       	ldd	r18, Y+3	; 0x03
 260:	3c 81       	ldd	r19, Y+4	; 0x04
 262:	c9 01       	movw	r24, r18
 264:	01 96       	adiw	r24, 0x01	; 1
 266:	9c 83       	std	Y+4, r25	; 0x04
 268:	8b 83       	std	Y+3, r24	; 0x03
 26a:	20 5d       	subi	r18, 0xD0	; 208
 26c:	37 40       	sbci	r19, 0x07	; 7
 26e:	8c f3       	brlt	.-30     	; 0x252 <ColorSensorRead+0xa2>
        while(!(TCS3200G_R) && (sensor == 1) && (timeout++<TCS_Tout) );         // wait out the Low period
 270:	80 81       	ld	r24, Z
 272:	84 fd       	sbrc	r24, 4
 274:	0c c0       	rjmp	.+24     	; 0x28e <ColorSensorRead+0xde>
 276:	01 30       	cpi	r16, 0x01	; 1
 278:	11 05       	cpc	r17, r1
 27a:	49 f4       	brne	.+18     	; 0x28e <ColorSensorRead+0xde>
 27c:	2b 81       	ldd	r18, Y+3	; 0x03
 27e:	3c 81       	ldd	r19, Y+4	; 0x04
 280:	c9 01       	movw	r24, r18
 282:	01 96       	adiw	r24, 0x01	; 1
 284:	9c 83       	std	Y+4, r25	; 0x04
 286:	8b 83       	std	Y+3, r24	; 0x03
 288:	20 5d       	subi	r18, 0xD0	; 208
 28a:	37 40       	sbci	r19, 0x07	; 7
 28c:	8c f3       	brlt	.-30     	; 0x270 <ColorSensorRead+0xc0>
        while( (TCS3200G_R) && (sensor == 1) && (timeout++<TCS_Tout) )width++;  // Measure the pulse width
 28e:	80 81       	ld	r24, Z
 290:	84 ff       	sbrs	r24, 4
 292:	1d c0       	rjmp	.+58     	; 0x2ce <ColorSensorRead+0x11e>
 294:	01 30       	cpi	r16, 0x01	; 1
 296:	11 05       	cpc	r17, r1
 298:	d1 f4       	brne	.+52     	; 0x2ce <ColorSensorRead+0x11e>
 29a:	2b 81       	ldd	r18, Y+3	; 0x03
 29c:	3c 81       	ldd	r19, Y+4	; 0x04
 29e:	c9 01       	movw	r24, r18
 2a0:	01 96       	adiw	r24, 0x01	; 1
 2a2:	9c 83       	std	Y+4, r25	; 0x04
 2a4:	8b 83       	std	Y+3, r24	; 0x03
 2a6:	20 5d       	subi	r18, 0xD0	; 208
 2a8:	37 40       	sbci	r19, 0x07	; 7
 2aa:	8c f4       	brge	.+34     	; 0x2ce <ColorSensorRead+0x11e>
 2ac:	89 81       	ldd	r24, Y+1	; 0x01
 2ae:	9a 81       	ldd	r25, Y+2	; 0x02
 2b0:	01 96       	adiw	r24, 0x01	; 1
 2b2:	9a 83       	std	Y+2, r25	; 0x02
 2b4:	89 83       	std	Y+1, r24	; 0x01
 2b6:	80 81       	ld	r24, Z
 2b8:	84 ff       	sbrs	r24, 4
 2ba:	09 c0       	rjmp	.+18     	; 0x2ce <ColorSensorRead+0x11e>
 2bc:	2b 81       	ldd	r18, Y+3	; 0x03
 2be:	3c 81       	ldd	r19, Y+4	; 0x04
 2c0:	c9 01       	movw	r24, r18
 2c2:	01 96       	adiw	r24, 0x01	; 1
 2c4:	9c 83       	std	Y+4, r25	; 0x04
 2c6:	8b 83       	std	Y+3, r24	; 0x03
 2c8:	20 5d       	subi	r18, 0xD0	; 208
 2ca:	37 40       	sbci	r19, 0x07	; 7
 2cc:	7c f3       	brlt	.-34     	; 0x2ac <ColorSensorRead+0xfc>
        //-----------------------------------------------------


        if( timeout == TCS_Tout )   // Catch a timeout scenario and end the function early returning a 0 to the program
 2ce:	8b 81       	ldd	r24, Y+3	; 0x03
 2d0:	9c 81       	ldd	r25, Y+4	; 0x04
 2d2:	80 5d       	subi	r24, 0xD0	; 208
 2d4:	97 40       	sbci	r25, 0x07	; 7
 2d6:	c1 f4       	brne	.+48     	; 0x308 <ColorSensorRead+0x158>
        {
            // Display error code with data and return 0 for error-
            printString("warning TCS ");
 2d8:	80 e0       	ldi	r24, 0x00	; 0
 2da:	92 e0       	ldi	r25, 0x02	; 2
 2dc:	0e 94 27 03 	call	0x64e	; 0x64e <printString>
            printByte(sensor);
 2e0:	80 2f       	mov	r24, r16
 2e2:	0e 94 68 03 	call	0x6d0	; 0x6d0 <printByte>
            printString(" out of boundaries after: ");
 2e6:	8d e0       	ldi	r24, 0x0D	; 13
 2e8:	92 e0       	ldi	r25, 0x02	; 2
 2ea:	0e 94 27 03 	call	0x64e	; 0x64e <printString>
            printByte(X);
 2ee:	8e 2d       	mov	r24, r14
 2f0:	0e 94 68 03 	call	0x6d0	; 0x6d0 <printByte>
            printString(" runs");
 2f4:	88 e2       	ldi	r24, 0x28	; 40
 2f6:	92 e0       	ldi	r25, 0x02	; 2
 2f8:	0e 94 27 03 	call	0x64e	; 0x64e <printString>
            transmitByte('\n');
 2fc:	8a e0       	ldi	r24, 0x0A	; 10
 2fe:	0e 94 16 03 	call	0x62c	; 0x62c <transmitByte>
 302:	20 e0       	ldi	r18, 0x00	; 0
 304:	30 e0       	ldi	r19, 0x00	; 0
 306:	13 c0       	rjmp	.+38     	; 0x32e <ColorSensorRead+0x17e>
    volatile int width=0;
    int X;
    //---------------------------------------------------------


    for(X=0; X<10; X++)
 308:	08 94       	sec
 30a:	e1 1c       	adc	r14, r1
 30c:	f1 1c       	adc	r15, r1
 30e:	8a e0       	ldi	r24, 0x0A	; 10
 310:	e8 16       	cp	r14, r24
 312:	f1 04       	cpc	r15, r1
 314:	09 f0       	breq	.+2      	; 0x318 <ColorSensorRead+0x168>
 316:	5d cf       	rjmp	.-326    	; 0x1d2 <ColorSensorRead+0x22>
        }
        //-----------------------------------------------------
    }

    //Take the average value of the measurements rounding down--
    width = width / X;
 318:	89 81       	ldd	r24, Y+1	; 0x01
 31a:	9a 81       	ldd	r25, Y+2	; 0x02
 31c:	b7 01       	movw	r22, r14
 31e:	0e 94 a6 03 	call	0x74c	; 0x74c <__divmodhi4>
 322:	86 2f       	mov	r24, r22
 324:	97 2f       	mov	r25, r23
 326:	9a 83       	std	Y+2, r25	; 0x02
 328:	89 83       	std	Y+1, r24	; 0x01
    //---------------------------------------------------------


    return width; // Return value
 32a:	29 81       	ldd	r18, Y+1	; 0x01
 32c:	3a 81       	ldd	r19, Y+2	; 0x02
}
 32e:	82 2f       	mov	r24, r18
 330:	93 2f       	mov	r25, r19
 332:	0f 90       	pop	r0
 334:	0f 90       	pop	r0
 336:	0f 90       	pop	r0
 338:	0f 90       	pop	r0
 33a:	cf 91       	pop	r28
 33c:	df 91       	pop	r29
 33e:	1f 91       	pop	r17
 340:	0f 91       	pop	r16
 342:	ff 90       	pop	r15
 344:	ef 90       	pop	r14
 346:	08 95       	ret

00000348 <IRDistanceRead>:
}



int IRDistanceRead(int sensor)
{
 348:	df 93       	push	r29
 34a:	cf 93       	push	r28
 34c:	0f 92       	push	r0
 34e:	0f 92       	push	r0
 350:	cd b7       	in	r28, 0x3d	; 61
 352:	de b7       	in	r29, 0x3e	; 62
 354:	9c 01       	movw	r18, r24
    // Initialize variables------------------------------------
    int distance=0;
    volatile int timeout=0;
 356:	1a 82       	std	Y+2, r1	; 0x02
 358:	19 82       	std	Y+1, r1	; 0x01
    int X;
    //---------------------------------------------------------

    ADMUX  = ((ADMUX) & 0b11100000);
 35a:	ec e7       	ldi	r30, 0x7C	; 124
 35c:	f0 e0       	ldi	r31, 0x00	; 0
 35e:	80 81       	ld	r24, Z
 360:	80 7e       	andi	r24, 0xE0	; 224
 362:	80 83       	st	Z, r24
    // Switch the ADC to the correct pin-----------------------
    switch (sensor)
 364:	21 30       	cpi	r18, 0x01	; 1
 366:	31 05       	cpc	r19, r1
 368:	99 f0       	breq	.+38     	; 0x390 <IRDistanceRead+0x48>
 36a:	22 30       	cpi	r18, 0x02	; 2
 36c:	31 05       	cpc	r19, r1
 36e:	d1 f0       	breq	.+52     	; 0x3a4 <IRDistanceRead+0x5c>
 370:	23 2b       	or	r18, r19
 372:	29 f0       	breq	.+10     	; 0x37e <IRDistanceRead+0x36>
 374:	40 e0       	ldi	r20, 0x00	; 0
 376:	50 e0       	ldi	r21, 0x00	; 0
 378:	20 e0       	ldi	r18, 0x00	; 0
 37a:	30 e0       	ldi	r19, 0x00	; 0
 37c:	1c c0       	rjmp	.+56     	; 0x3b6 <IRDistanceRead+0x6e>
    {
    case 0:                                                     // Set pin A0 as read pin
        ADMUX  = (ADMUX | (0b00000000));    // PIN selection
 37e:	ec e7       	ldi	r30, 0x7C	; 124
 380:	f0 e0       	ldi	r31, 0x00	; 0
 382:	80 81       	ld	r24, Z
 384:	80 83       	st	Z, r24
 386:	40 e0       	ldi	r20, 0x00	; 0
 388:	50 e0       	ldi	r21, 0x00	; 0
 38a:	20 e0       	ldi	r18, 0x00	; 0
 38c:	30 e0       	ldi	r19, 0x00	; 0
 38e:	13 c0       	rjmp	.+38     	; 0x3b6 <IRDistanceRead+0x6e>
        break;

    case 1:                                                     // Set pin A2 as read pin
        ADMUX  = (ADMUX | (0b00000010));  // PIN selection
 390:	ec e7       	ldi	r30, 0x7C	; 124
 392:	f0 e0       	ldi	r31, 0x00	; 0
 394:	80 81       	ld	r24, Z
 396:	82 60       	ori	r24, 0x02	; 2
 398:	80 83       	st	Z, r24
 39a:	40 e0       	ldi	r20, 0x00	; 0
 39c:	50 e0       	ldi	r21, 0x00	; 0
 39e:	20 e0       	ldi	r18, 0x00	; 0
 3a0:	30 e0       	ldi	r19, 0x00	; 0
 3a2:	09 c0       	rjmp	.+18     	; 0x3b6 <IRDistanceRead+0x6e>
        break;

    case 2:                                                     // Set pin A4 as read pin
        ADMUX  = (ADMUX | (0b00000100));  // PIN selection
 3a4:	ec e7       	ldi	r30, 0x7C	; 124
 3a6:	f0 e0       	ldi	r31, 0x00	; 0
 3a8:	80 81       	ld	r24, Z
 3aa:	84 60       	ori	r24, 0x04	; 4
 3ac:	80 83       	st	Z, r24
 3ae:	40 e0       	ldi	r20, 0x00	; 0
 3b0:	50 e0       	ldi	r21, 0x00	; 0
 3b2:	20 e0       	ldi	r18, 0x00	; 0
 3b4:	30 e0       	ldi	r19, 0x00	; 0
    //---------------------------------------------------------

    // Take measurements with the ADC and collect the average--
    for(X=0; X<5; X++)
    {
        ADCSRA |= (1 << ADSC);                                              // Start the conversion
 3b6:	ea e7       	ldi	r30, 0x7A	; 122
 3b8:	f0 e0       	ldi	r31, 0x00	; 0
        while ( (ADCSRA & (1 << ADSC)) == 1 && timeout++<(ADC_Tout/2) );    // Wait until conversion is finished
        distance += (ADCH);                                                 // ADC data is left aligned and can be read from ADCH directly as an 8 bit value
 3ba:	a9 e7       	ldi	r26, 0x79	; 121
 3bc:	b0 e0       	ldi	r27, 0x00	; 0
    //---------------------------------------------------------

    // Take measurements with the ADC and collect the average--
    for(X=0; X<5; X++)
    {
        ADCSRA |= (1 << ADSC);                                              // Start the conversion
 3be:	80 81       	ld	r24, Z
 3c0:	80 64       	ori	r24, 0x40	; 64
 3c2:	80 83       	st	Z, r24
        while ( (ADCSRA & (1 << ADSC)) == 1 && timeout++<(ADC_Tout/2) );    // Wait until conversion is finished
 3c4:	80 81       	ld	r24, Z
        distance += (ADCH);                                                 // ADC data is left aligned and can be read from ADCH directly as an 8 bit value
 3c6:	8c 91       	ld	r24, X
 3c8:	48 0f       	add	r20, r24
 3ca:	51 1d       	adc	r21, r1
        break;
    }
    //---------------------------------------------------------

    // Take measurements with the ADC and collect the average--
    for(X=0; X<5; X++)
 3cc:	2f 5f       	subi	r18, 0xFF	; 255
 3ce:	3f 4f       	sbci	r19, 0xFF	; 255
 3d0:	25 30       	cpi	r18, 0x05	; 5
 3d2:	31 05       	cpc	r19, r1
 3d4:	a1 f7       	brne	.-24     	; 0x3be <IRDistanceRead+0x76>
    }                                                                       // Because ADC value is an 8 bit value overflow is impossible
    //---------------------------------------------------------


    // If a timeout occurs attempt to retry the measurement----
    if( timeout == ADC_Tout/2 )
 3d6:	89 81       	ldd	r24, Y+1	; 0x01
 3d8:	9a 81       	ldd	r25, Y+2	; 0x02
 3da:	88 5e       	subi	r24, 0xE8	; 232
 3dc:	93 40       	sbci	r25, 0x03	; 3
 3de:	51 f5       	brne	.+84     	; 0x434 <IRDistanceRead+0xec>
    {
        printString("warning ADC out of boundaries retrying");
 3e0:	8e e2       	ldi	r24, 0x2E	; 46
 3e2:	92 e0       	ldi	r25, 0x02	; 2
 3e4:	0e 94 27 03 	call	0x64e	; 0x64e <printString>
        transmitByte('\n');
 3e8:	8a e0       	ldi	r24, 0x0A	; 10
 3ea:	0e 94 16 03 	call	0x62c	; 0x62c <transmitByte>
 3ee:	40 e0       	ldi	r20, 0x00	; 0
 3f0:	50 e0       	ldi	r21, 0x00	; 0
 3f2:	20 e0       	ldi	r18, 0x00	; 0
 3f4:	30 e0       	ldi	r19, 0x00	; 0
        distance=0;
        for(X=0; X<5; X++)
        {
            ADCSRA |= (1 << ADSC);                                          // Start the conversion
 3f6:	ea e7       	ldi	r30, 0x7A	; 122
 3f8:	f0 e0       	ldi	r31, 0x00	; 0
            while ( (ADCSRA & (1 << ADSC)) == 1 && timeout++<(ADC_Tout) );  // Wait until conversion is finished
            distance += (ADCH);                                             // ADC data is left aligned and can be read from ADCH directly as an 8 bit value
 3fa:	a9 e7       	ldi	r26, 0x79	; 121
 3fc:	b0 e0       	ldi	r27, 0x00	; 0
        printString("warning ADC out of boundaries retrying");
        transmitByte('\n');
        distance=0;
        for(X=0; X<5; X++)
        {
            ADCSRA |= (1 << ADSC);                                          // Start the conversion
 3fe:	80 81       	ld	r24, Z
 400:	80 64       	ori	r24, 0x40	; 64
 402:	80 83       	st	Z, r24
            while ( (ADCSRA & (1 << ADSC)) == 1 && timeout++<(ADC_Tout) );  // Wait until conversion is finished
 404:	80 81       	ld	r24, Z
            distance += (ADCH);                                             // ADC data is left aligned and can be read from ADCH directly as an 8 bit value
 406:	8c 91       	ld	r24, X
 408:	48 0f       	add	r20, r24
 40a:	51 1d       	adc	r21, r1
    if( timeout == ADC_Tout/2 )
    {
        printString("warning ADC out of boundaries retrying");
        transmitByte('\n');
        distance=0;
        for(X=0; X<5; X++)
 40c:	2f 5f       	subi	r18, 0xFF	; 255
 40e:	3f 4f       	sbci	r19, 0xFF	; 255
 410:	25 30       	cpi	r18, 0x05	; 5
 412:	31 05       	cpc	r19, r1
 414:	a1 f7       	brne	.-24     	; 0x3fe <IRDistanceRead+0xb6>
        {
            ADCSRA |= (1 << ADSC);                                          // Start the conversion
            while ( (ADCSRA & (1 << ADSC)) == 1 && timeout++<(ADC_Tout) );  // Wait until conversion is finished
            distance += (ADCH);                                             // ADC data is left aligned and can be read from ADCH directly as an 8 bit value
        }
        if( timeout == ADC_Tout)                                            // if retry has failed return 0
 416:	89 81       	ldd	r24, Y+1	; 0x01
 418:	9a 81       	ldd	r25, Y+2	; 0x02
 41a:	80 5d       	subi	r24, 0xD0	; 208
 41c:	97 40       	sbci	r25, 0x07	; 7
 41e:	51 f4       	brne	.+20     	; 0x434 <IRDistanceRead+0xec>
        {
            printString("Retry failed");
 420:	85 e5       	ldi	r24, 0x55	; 85
 422:	92 e0       	ldi	r25, 0x02	; 2
 424:	0e 94 27 03 	call	0x64e	; 0x64e <printString>
            transmitByte('\n');
 428:	8a e0       	ldi	r24, 0x0A	; 10
 42a:	0e 94 16 03 	call	0x62c	; 0x62c <transmitByte>
 42e:	20 e0       	ldi	r18, 0x00	; 0
 430:	30 e0       	ldi	r19, 0x00	; 0
 432:	08 c0       	rjmp	.+16     	; 0x444 <IRDistanceRead+0xfc>
    }
    //---------------------------------------------------------


    //Take the average value of the measurements rounding down-
    distance = distance / X;
 434:	ca 01       	movw	r24, r20
 436:	65 e0       	ldi	r22, 0x05	; 5
 438:	70 e0       	ldi	r23, 0x00	; 0
 43a:	0e 94 a6 03 	call	0x74c	; 0x74c <__divmodhi4>
 43e:	86 2f       	mov	r24, r22
 440:	97 2f       	mov	r25, r23
 442:	9c 01       	movw	r18, r24
    //---------------------------------------------------------

    return distance;
}
 444:	82 2f       	mov	r24, r18
 446:	93 2f       	mov	r25, r19
 448:	0f 90       	pop	r0
 44a:	0f 90       	pop	r0
 44c:	cf 91       	pop	r28
 44e:	df 91       	pop	r29
 450:	08 95       	ret

00000452 <main>:
int IRDistanceRead(int sensor);
int ColorSensorRead(int sensor);


int main(void)
{
 452:	2f 92       	push	r2
 454:	3f 92       	push	r3
 456:	4f 92       	push	r4
 458:	5f 92       	push	r5
 45a:	6f 92       	push	r6
 45c:	7f 92       	push	r7
 45e:	8f 92       	push	r8
 460:	9f 92       	push	r9
 462:	af 92       	push	r10
 464:	bf 92       	push	r11
 466:	cf 92       	push	r12
 468:	df 92       	push	r13
 46a:	ef 92       	push	r14
 46c:	ff 92       	push	r15
 46e:	0f 93       	push	r16
 470:	1f 93       	push	r17
 472:	cf 93       	push	r28
 474:	df 93       	push	r29

//-Initialize ADCs---------
    ADMUX |= (0 << REFS1) |(1 << REFS0)|(1<<ADLAR);     // Voltage reference via capacitor on arduino
 476:	ec e7       	ldi	r30, 0x7C	; 124
 478:	f0 e0       	ldi	r31, 0x00	; 0
 47a:	80 81       	ld	r24, Z
 47c:	80 66       	ori	r24, 0x60	; 96
 47e:	80 83       	st	Z, r24
    ADCSRA |= (1 << ADEN) |(0 << ADIE);                 // ADC enable and ADC conversion complete interrupt disabled
 480:	ea e7       	ldi	r30, 0x7A	; 122
 482:	f0 e0       	ldi	r31, 0x00	; 0
 484:	80 81       	ld	r24, Z
 486:	80 68       	ori	r24, 0x80	; 128
 488:	80 83       	st	Z, r24
    ADCSRA |= (1 << ADPS2)|(1 << ADPS1)|(1 << ADPS0);   // Prescaler settings (Currently 128)
 48a:	80 81       	ld	r24, Z
 48c:	87 60       	ori	r24, 0x07	; 7
 48e:	80 83       	st	Z, r24
    DIDR0 = 0b11111111;                                 // Disable Digital input
 490:	8f ef       	ldi	r24, 0xFF	; 255
 492:	80 93 7e 00 	sts	0x007E, r24
    DIDR2 = 0b11111111;                                 // Disable Digital input
 496:	80 93 7d 00 	sts	0x007D, r24
    ADCSRA |= (1 << ADSC);                              // Run a single conversion in order to prime the circuit
 49a:	80 81       	ld	r24, Z
 49c:	80 64       	ori	r24, 0x40	; 64
 49e:	80 83       	st	Z, r24
//-------------------------

//-Initialize pins---------
    TCS3200_INIT;
 4a0:	e4 e2       	ldi	r30, 0x24	; 36
 4a2:	f0 e0       	ldi	r31, 0x00	; 0
 4a4:	80 81       	ld	r24, Z
 4a6:	83 60       	ori	r24, 0x03	; 3
 4a8:	80 83       	st	Z, r24
    LED_INIT;
 4aa:	e7 e2       	ldi	r30, 0x27	; 39
 4ac:	f0 e0       	ldi	r31, 0x00	; 0
 4ae:	80 81       	ld	r24, Z
 4b0:	86 6e       	ori	r24, 0xE6	; 230
 4b2:	80 83       	st	Z, r24
//-------------------------


//-Initialize motors-------
    MotorL_INIT;
 4b4:	e1 e0       	ldi	r30, 0x01	; 1
 4b6:	f1 e0       	ldi	r31, 0x01	; 1
 4b8:	80 81       	ld	r24, Z
 4ba:	88 61       	ori	r24, 0x18	; 24
 4bc:	80 83       	st	Z, r24
    MotorR_INIT;
 4be:	80 81       	ld	r24, Z
 4c0:	80 66       	ori	r24, 0x60	; 96
 4c2:	80 83       	st	Z, r24
//-------------------------


//-Initialize Serial-------
    initUSART();
 4c4:	0e 94 05 03 	call	0x60a	; 0x60a <initUSART>
//-------------------------


//-zero magnometer---------
    north_angle = MagnometerRead();
 4c8:	0e 94 95 00 	call	0x12a	; 0x12a <MagnometerRead>
 4cc:	90 93 a9 02 	sts	0x02A9, r25
 4d0:	80 93 a8 02 	sts	0x02A8, r24
//-------------------------


//-Enable interrupts-------
    sei();
 4d4:	78 94       	sei
//-------------------------
//-End of setup-----------------------------------------]
    printString("RDY");
 4d6:	82 e6       	ldi	r24, 0x62	; 98
 4d8:	92 e0       	ldi	r25, 0x02	; 2
 4da:	0e 94 27 03 	call	0x64e	; 0x64e <printString>
    transmitByte('\n');
 4de:	8a e0       	ldi	r24, 0x0A	; 10
 4e0:	0e 94 16 03 	call	0x62c	; 0x62c <transmitByte>


    while(testmode == 1){
    transmitByte('\n');
    // IR sensor diagnostic printing
    if (IR_FL > 0) printString("FL  "); else printString("    ");
 4e4:	c9 e0       	ldi	r28, 0x09	; 9
 4e6:	d1 e0       	ldi	r29, 0x01	; 1
 4e8:	0b e6       	ldi	r16, 0x6B	; 107
 4ea:	12 e0       	ldi	r17, 0x02	; 2
    if (IR_FR1 > 0)printString("FR1 "); else printString("    ");
    if (IR_FR2 > 0)printString("FR2 "); else printString("    ");
    if (IR_BL > 0) printString("BL  "); else printString("    ");
    if (IR_BR > 0) printString("BR  "); else printString("    ");
 4ec:	0f 2e       	mov	r0, r31
 4ee:	ff e7       	ldi	r31, 0x7F	; 127
 4f0:	2f 2e       	mov	r2, r31
 4f2:	f2 e0       	ldi	r31, 0x02	; 2
 4f4:	3f 2e       	mov	r3, r31
 4f6:	f0 2d       	mov	r31, r0

    // Magnometer Diagnostic printing
    printString(" MAG=");
 4f8:	0f 2e       	mov	r0, r31
 4fa:	f4 e8       	ldi	r31, 0x84	; 132
 4fc:	4f 2e       	mov	r4, r31
 4fe:	f2 e0       	ldi	r31, 0x02	; 2
 500:	5f 2e       	mov	r5, r31
 502:	f0 2d       	mov	r31, r0
    printByte(MagnometerRead());

    // Distance sensor Diagnostic printing
    printString(" IR0=");
 504:	0f 2e       	mov	r0, r31
 506:	fa e8       	ldi	r31, 0x8A	; 138
 508:	6f 2e       	mov	r6, r31
 50a:	f2 e0       	ldi	r31, 0x02	; 2
 50c:	7f 2e       	mov	r7, r31
 50e:	f0 2d       	mov	r31, r0
    printByte(IRDistanceRead(0));
    printString(" IR1=");
 510:	0f 2e       	mov	r0, r31
 512:	f0 e9       	ldi	r31, 0x90	; 144
 514:	8f 2e       	mov	r8, r31
 516:	f2 e0       	ldi	r31, 0x02	; 2
 518:	9f 2e       	mov	r9, r31
 51a:	f0 2d       	mov	r31, r0
    printByte(IRDistanceRead(1));
    printString(" IR2=");
 51c:	0f 2e       	mov	r0, r31
 51e:	f6 e9       	ldi	r31, 0x96	; 150
 520:	af 2e       	mov	r10, r31
 522:	f2 e0       	ldi	r31, 0x02	; 2
 524:	bf 2e       	mov	r11, r31
 526:	f0 2d       	mov	r31, r0
    printByte(IRDistanceRead(2));

    //colorsensor diagnostic printing
    printString(" CL0=");
 528:	0f 2e       	mov	r0, r31
 52a:	fc e9       	ldi	r31, 0x9C	; 156
 52c:	cf 2e       	mov	r12, r31
 52e:	f2 e0       	ldi	r31, 0x02	; 2
 530:	df 2e       	mov	r13, r31
 532:	f0 2d       	mov	r31, r0
    //printByte(ColorSensorRead(0));
    printString(" CL1=");
 534:	0f 2e       	mov	r0, r31
 536:	f2 ea       	ldi	r31, 0xA2	; 162
 538:	ef 2e       	mov	r14, r31
 53a:	f2 e0       	ldi	r31, 0x02	; 2
 53c:	ff 2e       	mov	r15, r31
 53e:	f0 2d       	mov	r31, r0
    printString("RDY");
    transmitByte('\n');


    while(testmode == 1){
    transmitByte('\n');
 540:	8a e0       	ldi	r24, 0x0A	; 10
 542:	0e 94 16 03 	call	0x62c	; 0x62c <transmitByte>
    // IR sensor diagnostic printing
    if (IR_FL > 0) printString("FL  "); else printString("    ");
 546:	88 81       	ld	r24, Y
 548:	86 ff       	sbrs	r24, 6
 54a:	05 c0       	rjmp	.+10     	; 0x556 <main+0x104>
 54c:	86 e6       	ldi	r24, 0x66	; 102
 54e:	92 e0       	ldi	r25, 0x02	; 2
 550:	0e 94 27 03 	call	0x64e	; 0x64e <printString>
 554:	03 c0       	rjmp	.+6      	; 0x55c <main+0x10a>
 556:	c8 01       	movw	r24, r16
 558:	0e 94 27 03 	call	0x64e	; 0x64e <printString>
    if (IR_FR1 > 0)printString("FR1 "); else printString("    ");
 55c:	88 81       	ld	r24, Y
 55e:	86 ff       	sbrs	r24, 6
 560:	05 c0       	rjmp	.+10     	; 0x56c <main+0x11a>
 562:	80 e7       	ldi	r24, 0x70	; 112
 564:	92 e0       	ldi	r25, 0x02	; 2
 566:	0e 94 27 03 	call	0x64e	; 0x64e <printString>
 56a:	03 c0       	rjmp	.+6      	; 0x572 <main+0x120>
 56c:	c8 01       	movw	r24, r16
 56e:	0e 94 27 03 	call	0x64e	; 0x64e <printString>
    if (IR_FR2 > 0)printString("FR2 "); else printString("    ");
 572:	88 81       	ld	r24, Y
 574:	86 ff       	sbrs	r24, 6
 576:	05 c0       	rjmp	.+10     	; 0x582 <main+0x130>
 578:	85 e7       	ldi	r24, 0x75	; 117
 57a:	92 e0       	ldi	r25, 0x02	; 2
 57c:	0e 94 27 03 	call	0x64e	; 0x64e <printString>
 580:	03 c0       	rjmp	.+6      	; 0x588 <main+0x136>
 582:	c8 01       	movw	r24, r16
 584:	0e 94 27 03 	call	0x64e	; 0x64e <printString>
    if (IR_BL > 0) printString("BL  "); else printString("    ");
 588:	88 81       	ld	r24, Y
 58a:	86 ff       	sbrs	r24, 6
 58c:	05 c0       	rjmp	.+10     	; 0x598 <main+0x146>
 58e:	8a e7       	ldi	r24, 0x7A	; 122
 590:	92 e0       	ldi	r25, 0x02	; 2
 592:	0e 94 27 03 	call	0x64e	; 0x64e <printString>
 596:	03 c0       	rjmp	.+6      	; 0x59e <main+0x14c>
 598:	c8 01       	movw	r24, r16
 59a:	0e 94 27 03 	call	0x64e	; 0x64e <printString>
    if (IR_BR > 0) printString("BR  "); else printString("    ");
 59e:	88 81       	ld	r24, Y
 5a0:	86 ff       	sbrs	r24, 6
 5a2:	04 c0       	rjmp	.+8      	; 0x5ac <main+0x15a>
 5a4:	c1 01       	movw	r24, r2
 5a6:	0e 94 27 03 	call	0x64e	; 0x64e <printString>
 5aa:	03 c0       	rjmp	.+6      	; 0x5b2 <main+0x160>
 5ac:	c8 01       	movw	r24, r16
 5ae:	0e 94 27 03 	call	0x64e	; 0x64e <printString>

    // Magnometer Diagnostic printing
    printString(" MAG=");
 5b2:	c2 01       	movw	r24, r4
 5b4:	0e 94 27 03 	call	0x64e	; 0x64e <printString>
    printByte(MagnometerRead());
 5b8:	0e 94 95 00 	call	0x12a	; 0x12a <MagnometerRead>
 5bc:	0e 94 68 03 	call	0x6d0	; 0x6d0 <printByte>

    // Distance sensor Diagnostic printing
    printString(" IR0=");
 5c0:	c3 01       	movw	r24, r6
 5c2:	0e 94 27 03 	call	0x64e	; 0x64e <printString>
    printByte(IRDistanceRead(0));
 5c6:	80 e0       	ldi	r24, 0x00	; 0
 5c8:	90 e0       	ldi	r25, 0x00	; 0
 5ca:	0e 94 a4 01 	call	0x348	; 0x348 <IRDistanceRead>
 5ce:	0e 94 68 03 	call	0x6d0	; 0x6d0 <printByte>
    printString(" IR1=");
 5d2:	c4 01       	movw	r24, r8
 5d4:	0e 94 27 03 	call	0x64e	; 0x64e <printString>
    printByte(IRDistanceRead(1));
 5d8:	81 e0       	ldi	r24, 0x01	; 1
 5da:	90 e0       	ldi	r25, 0x00	; 0
 5dc:	0e 94 a4 01 	call	0x348	; 0x348 <IRDistanceRead>
 5e0:	0e 94 68 03 	call	0x6d0	; 0x6d0 <printByte>
    printString(" IR2=");
 5e4:	c5 01       	movw	r24, r10
 5e6:	0e 94 27 03 	call	0x64e	; 0x64e <printString>
    printByte(IRDistanceRead(2));
 5ea:	82 e0       	ldi	r24, 0x02	; 2
 5ec:	90 e0       	ldi	r25, 0x00	; 0
 5ee:	0e 94 a4 01 	call	0x348	; 0x348 <IRDistanceRead>
 5f2:	0e 94 68 03 	call	0x6d0	; 0x6d0 <printByte>

    //colorsensor diagnostic printing
    printString(" CL0=");
 5f6:	c6 01       	movw	r24, r12
 5f8:	0e 94 27 03 	call	0x64e	; 0x64e <printString>
    //printByte(ColorSensorRead(0));
    printString(" CL1=");
 5fc:	c7 01       	movw	r24, r14
 5fe:	0e 94 27 03 	call	0x64e	; 0x64e <printString>
    //printByte(ColorSensorRead(1));
    transmitByte('\n');
 602:	8a e0       	ldi	r24, 0x0A	; 10
 604:	0e 94 16 03 	call	0x62c	; 0x62c <transmitByte>
 608:	9b cf       	rjmp	.-202    	; 0x540 <main+0xee>

0000060a <initUSART>:
 60a:	10 92 c5 00 	sts	0x00C5, r1
 60e:	87 e6       	ldi	r24, 0x67	; 103
 610:	80 93 c4 00 	sts	0x00C4, r24
 614:	e0 ec       	ldi	r30, 0xC0	; 192
 616:	f0 e0       	ldi	r31, 0x00	; 0
 618:	80 81       	ld	r24, Z
 61a:	8d 7f       	andi	r24, 0xFD	; 253
 61c:	80 83       	st	Z, r24
 61e:	88 e1       	ldi	r24, 0x18	; 24
 620:	80 93 c1 00 	sts	0x00C1, r24
 624:	86 e0       	ldi	r24, 0x06	; 6
 626:	80 93 c2 00 	sts	0x00C2, r24
 62a:	08 95       	ret

0000062c <transmitByte>:
 62c:	98 2f       	mov	r25, r24
 62e:	e0 ec       	ldi	r30, 0xC0	; 192
 630:	f0 e0       	ldi	r31, 0x00	; 0
 632:	80 81       	ld	r24, Z
 634:	85 ff       	sbrs	r24, 5
 636:	fd cf       	rjmp	.-6      	; 0x632 <transmitByte+0x6>
 638:	90 93 c6 00 	sts	0x00C6, r25
 63c:	08 95       	ret

0000063e <receiveByte>:
 63e:	e0 ec       	ldi	r30, 0xC0	; 192
 640:	f0 e0       	ldi	r31, 0x00	; 0
 642:	80 81       	ld	r24, Z
 644:	88 23       	and	r24, r24
 646:	ec f7       	brge	.-6      	; 0x642 <receiveByte+0x4>
 648:	80 91 c6 00 	lds	r24, 0x00C6
 64c:	08 95       	ret

0000064e <printString>:
 64e:	1f 93       	push	r17
 650:	cf 93       	push	r28
 652:	df 93       	push	r29
 654:	ec 01       	movw	r28, r24
 656:	88 81       	ld	r24, Y
 658:	88 23       	and	r24, r24
 65a:	51 f0       	breq	.+20     	; 0x670 <printString+0x22>
 65c:	10 e0       	ldi	r17, 0x00	; 0
 65e:	0e 94 16 03 	call	0x62c	; 0x62c <transmitByte>
 662:	1f 5f       	subi	r17, 0xFF	; 255
 664:	fe 01       	movw	r30, r28
 666:	e1 0f       	add	r30, r17
 668:	f1 1d       	adc	r31, r1
 66a:	80 81       	ld	r24, Z
 66c:	88 23       	and	r24, r24
 66e:	b9 f7       	brne	.-18     	; 0x65e <printString+0x10>
 670:	df 91       	pop	r29
 672:	cf 91       	pop	r28
 674:	1f 91       	pop	r17
 676:	08 95       	ret

00000678 <readString>:
 678:	ef 92       	push	r14
 67a:	ff 92       	push	r15
 67c:	0f 93       	push	r16
 67e:	1f 93       	push	r17
 680:	cf 93       	push	r28
 682:	df 93       	push	r29
 684:	7c 01       	movw	r14, r24
 686:	70 e0       	ldi	r23, 0x00	; 0
 688:	eb 01       	movw	r28, r22
 68a:	21 97       	sbiw	r28, 0x01	; 1
 68c:	1c 16       	cp	r1, r28
 68e:	1d 06       	cpc	r1, r29
 690:	14 f0       	brlt	.+4      	; 0x696 <readString+0x1e>
 692:	00 e0       	ldi	r16, 0x00	; 0
 694:	12 c0       	rjmp	.+36     	; 0x6ba <readString+0x42>
 696:	00 e0       	ldi	r16, 0x00	; 0
 698:	0e 94 1f 03 	call	0x63e	; 0x63e <receiveByte>
 69c:	18 2f       	mov	r17, r24
 69e:	0e 94 16 03 	call	0x62c	; 0x62c <transmitByte>
 6a2:	1d 30       	cpi	r17, 0x0D	; 13
 6a4:	51 f0       	breq	.+20     	; 0x6ba <readString+0x42>
 6a6:	f7 01       	movw	r30, r14
 6a8:	e0 0f       	add	r30, r16
 6aa:	f1 1d       	adc	r31, r1
 6ac:	10 83       	st	Z, r17
 6ae:	0f 5f       	subi	r16, 0xFF	; 255
 6b0:	80 2f       	mov	r24, r16
 6b2:	90 e0       	ldi	r25, 0x00	; 0
 6b4:	8c 17       	cp	r24, r28
 6b6:	9d 07       	cpc	r25, r29
 6b8:	7c f3       	brlt	.-34     	; 0x698 <readString+0x20>
 6ba:	f7 01       	movw	r30, r14
 6bc:	e0 0f       	add	r30, r16
 6be:	f1 1d       	adc	r31, r1
 6c0:	10 82       	st	Z, r1
 6c2:	df 91       	pop	r29
 6c4:	cf 91       	pop	r28
 6c6:	1f 91       	pop	r17
 6c8:	0f 91       	pop	r16
 6ca:	ff 90       	pop	r15
 6cc:	ef 90       	pop	r14
 6ce:	08 95       	ret

000006d0 <printByte>:
 6d0:	1f 93       	push	r17
 6d2:	18 2f       	mov	r17, r24
 6d4:	64 e6       	ldi	r22, 0x64	; 100
 6d6:	0e 94 9a 03 	call	0x734	; 0x734 <__udivmodqi4>
 6da:	80 5d       	subi	r24, 0xD0	; 208
 6dc:	0e 94 16 03 	call	0x62c	; 0x62c <transmitByte>
 6e0:	81 2f       	mov	r24, r17
 6e2:	6a e0       	ldi	r22, 0x0A	; 10
 6e4:	0e 94 9a 03 	call	0x734	; 0x734 <__udivmodqi4>
 6e8:	0e 94 9a 03 	call	0x734	; 0x734 <__udivmodqi4>
 6ec:	89 2f       	mov	r24, r25
 6ee:	80 5d       	subi	r24, 0xD0	; 208
 6f0:	0e 94 16 03 	call	0x62c	; 0x62c <transmitByte>
 6f4:	81 2f       	mov	r24, r17
 6f6:	6a e0       	ldi	r22, 0x0A	; 10
 6f8:	0e 94 9a 03 	call	0x734	; 0x734 <__udivmodqi4>
 6fc:	89 2f       	mov	r24, r25
 6fe:	80 5d       	subi	r24, 0xD0	; 208
 700:	0e 94 16 03 	call	0x62c	; 0x62c <transmitByte>
 704:	1f 91       	pop	r17
 706:	08 95       	ret

00000708 <nibbleToHexCharacter>:
 708:	8a 30       	cpi	r24, 0x0A	; 10
 70a:	10 f4       	brcc	.+4      	; 0x710 <nibbleToHexCharacter+0x8>
 70c:	80 5d       	subi	r24, 0xD0	; 208
 70e:	08 95       	ret
 710:	89 5c       	subi	r24, 0xC9	; 201
 712:	08 95       	ret

00000714 <printHexByte>:
 714:	1f 93       	push	r17
 716:	18 2f       	mov	r17, r24
 718:	82 95       	swap	r24
 71a:	8f 70       	andi	r24, 0x0F	; 15
 71c:	0e 94 84 03 	call	0x708	; 0x708 <nibbleToHexCharacter>
 720:	0e 94 16 03 	call	0x62c	; 0x62c <transmitByte>
 724:	81 2f       	mov	r24, r17
 726:	8f 70       	andi	r24, 0x0F	; 15
 728:	0e 94 84 03 	call	0x708	; 0x708 <nibbleToHexCharacter>
 72c:	0e 94 16 03 	call	0x62c	; 0x62c <transmitByte>
 730:	1f 91       	pop	r17
 732:	08 95       	ret

00000734 <__udivmodqi4>:
 734:	99 1b       	sub	r25, r25
 736:	79 e0       	ldi	r23, 0x09	; 9
 738:	04 c0       	rjmp	.+8      	; 0x742 <__udivmodqi4_ep>

0000073a <__udivmodqi4_loop>:
 73a:	99 1f       	adc	r25, r25
 73c:	96 17       	cp	r25, r22
 73e:	08 f0       	brcs	.+2      	; 0x742 <__udivmodqi4_ep>
 740:	96 1b       	sub	r25, r22

00000742 <__udivmodqi4_ep>:
 742:	88 1f       	adc	r24, r24
 744:	7a 95       	dec	r23
 746:	c9 f7       	brne	.-14     	; 0x73a <__udivmodqi4_loop>
 748:	80 95       	com	r24
 74a:	08 95       	ret

0000074c <__divmodhi4>:
 74c:	97 fb       	bst	r25, 7
 74e:	09 2e       	mov	r0, r25
 750:	07 26       	eor	r0, r23
 752:	0a d0       	rcall	.+20     	; 0x768 <__divmodhi4_neg1>
 754:	77 fd       	sbrc	r23, 7
 756:	04 d0       	rcall	.+8      	; 0x760 <__divmodhi4_neg2>
 758:	0c d0       	rcall	.+24     	; 0x772 <__udivmodhi4>
 75a:	06 d0       	rcall	.+12     	; 0x768 <__divmodhi4_neg1>
 75c:	00 20       	and	r0, r0
 75e:	1a f4       	brpl	.+6      	; 0x766 <__divmodhi4_exit>

00000760 <__divmodhi4_neg2>:
 760:	70 95       	com	r23
 762:	61 95       	neg	r22
 764:	7f 4f       	sbci	r23, 0xFF	; 255

00000766 <__divmodhi4_exit>:
 766:	08 95       	ret

00000768 <__divmodhi4_neg1>:
 768:	f6 f7       	brtc	.-4      	; 0x766 <__divmodhi4_exit>
 76a:	90 95       	com	r25
 76c:	81 95       	neg	r24
 76e:	9f 4f       	sbci	r25, 0xFF	; 255
 770:	08 95       	ret

00000772 <__udivmodhi4>:
 772:	aa 1b       	sub	r26, r26
 774:	bb 1b       	sub	r27, r27
 776:	51 e1       	ldi	r21, 0x11	; 17
 778:	07 c0       	rjmp	.+14     	; 0x788 <__udivmodhi4_ep>

0000077a <__udivmodhi4_loop>:
 77a:	aa 1f       	adc	r26, r26
 77c:	bb 1f       	adc	r27, r27
 77e:	a6 17       	cp	r26, r22
 780:	b7 07       	cpc	r27, r23
 782:	10 f0       	brcs	.+4      	; 0x788 <__udivmodhi4_ep>
 784:	a6 1b       	sub	r26, r22
 786:	b7 0b       	sbc	r27, r23

00000788 <__udivmodhi4_ep>:
 788:	88 1f       	adc	r24, r24
 78a:	99 1f       	adc	r25, r25
 78c:	5a 95       	dec	r21
 78e:	a9 f7       	brne	.-22     	; 0x77a <__udivmodhi4_loop>
 790:	80 95       	com	r24
 792:	90 95       	com	r25
 794:	bc 01       	movw	r22, r24
 796:	cd 01       	movw	r24, r26
 798:	08 95       	ret

0000079a <_exit>:
 79a:	f8 94       	cli

0000079c <__stop_program>:
 79c:	ff cf       	rjmp	.-2      	; 0x79c <__stop_program>
